; Function Attrs: nounwind uwtable
define internal void @_render_poly(ptr noundef %0, ptr noundef %1, ptr noundef %2) #0 {
  %4 = alloca %struct._lv_matrix_t, align 4
  call void @llvm.lifetime.start.p0(i64 36, ptr nonnull %4) #9
  %5 = getelementptr inbounds nuw i8, ptr %1, i64 392
  %6 = call ptr @lv_memcpy(ptr noundef nonnull %4, ptr noundef nonnull %5, i64 noundef 36) #9
  %7 = getelementptr inbounds nuw i8, ptr %0, i64 464
  call void @lv_matrix_multiply(ptr noundef nonnull %5, ptr noundef nonnull %7) #9
  %.not = icmp eq ptr %2, null
  br i1 %.not, label %9, label %8

8:                                                ; preds = %3
  call void @lv_matrix_multiply(ptr noundef nonnull %5, ptr noundef nonnull %2) #9
  br label %9

9:                                                ; preds = %8, %3
  %10 = getelementptr inbounds nuw i8, ptr %1, i64 8
  %11 = getelementptr inbounds nuw i8, ptr %0, i64 512
  %12 = load ptr, ptr %11, align 8, !tbaa !124
  %.not.i = icmp eq ptr %12, null
  br i1 %.not.i, label %.loopexit31.i, label %13

13:                                               ; preds = %9
  %14 = getelementptr inbounds nuw i8, ptr %0, i64 504
  %.02334.i = load ptr, ptr %14, align 8, !tbaa !4
  %.not2635.i = icmp eq ptr %.02334.i, null
  br i1 %.not2635.i, label %.loopexit31.i, label %.lr.ph.i

.lr.ph.i:                                         ; preds = %13, %23
  %.02336.i = phi ptr [ %.023.i, %23 ], [ %.02334.i, %13 ]
  %15 = getelementptr inbounds nuw i8, ptr %.02336.i, i64 16
  %16 = load ptr, ptr %15, align 8, !tbaa !121
  %.not27.i = icmp eq ptr %16, null
  br i1 %.not27.i, label %23, label %17

17:                                               ; preds = %.lr.ph.i
  %18 = call i32 @strcmp(ptr noundef nonnull dereferenceable(1) %12, ptr noundef nonnull dereferenceable(1) %16) #10
  %19 = icmp eq i32 %18, 0
  br i1 %19, label %20, label %23

20:                                               ; preds = %17
  %21 = getelementptr inbounds nuw i8, ptr %.02336.i, i64 528
  %22 = load ptr, ptr %21, align 8, !tbaa !176
  call void %22(ptr noundef nonnull %.02336.i, ptr noundef nonnull %10, ptr noundef %0, i1 noundef zeroext true) #9
  br label %.loopexit31.i

23:                                               ; preds = %17, %.lr.ph.i
  %.023.i = load ptr, ptr %.02336.i, align 8, !tbaa !4
  %.not26.i = icmp eq ptr %.023.i, null
  br i1 %.not26.i, label %.loopexit31.i, label %.lr.ph.i, !llvm.loop !177

.loopexit31.i:                                    ; preds = %23, %20, %13, %9
  %24 = getelementptr inbounds nuw i8, ptr %0, i64 520
  %25 = load ptr, ptr %24, align 8, !tbaa !126
  %.not28.i = icmp eq ptr %25, null
  br i1 %.not28.i, label %_copy_draw_dsc_from_ref.exit, label %26

26:                                               ; preds = %.loopexit31.i
  %27 = getelementptr inbounds nuw i8, ptr %0, i64 504
  %.037.i = load ptr, ptr %27, align 8, !tbaa !4
  %.not2938.i = icmp eq ptr %.037.i, null
  br i1 %.not2938.i, label %_copy_draw_dsc_from_ref.exit, label %.lr.ph40.i

.lr.ph40.i:                                       ; preds = %26, %36
  %.039.i = phi ptr [ %.0.i, %36 ], [ %.037.i, %26 ]
  %28 = getelementptr inbounds nuw i8, ptr %.039.i, i64 16
  %29 = load ptr, ptr %28, align 8, !tbaa !121
  %.not30.i = icmp eq ptr %29, null
  br i1 %.not30.i, label %36, label %30

30:                                               ; preds = %.lr.ph40.i
  %31 = call i32 @strcmp(ptr noundef nonnull dereferenceable(1) %25, ptr noundef nonnull dereferenceable(1) %29) #10
  %32 = icmp eq i32 %31, 0
  br i1 %32, label %33, label %36

33:                                               ; preds = %30
  %34 = getelementptr inbounds nuw i8, ptr %.039.i, i64 528
  %35 = load ptr, ptr %34, align 8, !tbaa !176
  call void %35(ptr noundef nonnull %.039.i, ptr noundef nonnull %10, ptr noundef %0, i1 noundef zeroext false) #9
  br label %_copy_draw_dsc_from_ref.exit

36:                                               ; preds = %30, %.lr.ph40.i
  %.0.i = load ptr, ptr %.039.i, align 8, !tbaa !4
  %.not29.i = icmp eq ptr %.0.i, null
  br i1 %.not29.i, label %_copy_draw_dsc_from_ref.exit, label %.lr.ph40.i, !llvm.loop !178

_copy_draw_dsc_from_ref.exit:                     ; preds = %36, %.loopexit31.i, %26, %33
  %37 = getelementptr inbounds nuw i8, ptr %0, i64 576
  %38 = load ptr, ptr %37, align 8, !tbaa !186
  call void @lv_vector_dsc_add_path(ptr noundef %1, ptr noundef %38) #9
  %39 = call ptr @lv_memcpy(ptr noundef nonnull %5, ptr noundef nonnull %4, i64 noundef 36) #9
  call void @llvm.lifetime.end.p0(i64 36, ptr nonnull %4) #9
  ret void
}